target datalayout = "e-m:e-p270:32:32-p271:32:32-p272:64:64-i64:64-i128:128-f80:128-n8:16:32:64-S128"
target triple = "x86_64-pc-linux-gnu"

%struct._MAD = type { i8, i8, i8, i8, i16, i8, i8, i64, i16, i16, i32 }

@hf_opa_P_KeyTable = internal global i32 0, align 4
@hf_opa_P_KeyTable_MembershipType = internal global i32 0, align 4
@hf_opa_P_KeyTable_P_KeyBase = internal global i32 0, align 4
@ett_pkeytable = internal global i32 0, align 4
@ett_pkeytable_block = internal global i32 0, align 4
@.str.2329 = private unnamed_addr constant [6 x i8] c"%3u: \00", align 1
@.str.2331 = private unnamed_addr constant [6 x i8] c"     \00", align 1
@.str.2332 = private unnamed_addr constant [20 x i8] c"PKey Table Block %u\00", align 1

; Function Attrs: null_pointer_is_valid sspstrong uwtable
define internal i32 @parse_P_KeyTable(ptr noundef %0, ptr noundef %1, ptr noundef %2, ptr noundef %3) #0 {
  %5 = alloca i32, align 4
  %6 = alloca ptr, align 8
  %7 = alloca ptr, align 8
  %8 = alloca ptr, align 8
  %9 = alloca ptr, align 8
  %10 = alloca i32, align 4
  %11 = alloca ptr, align 8
  %12 = alloca ptr, align 8
  %13 = alloca ptr, align 8
  %14 = alloca ptr, align 8
  %15 = alloca ptr, align 8
  %16 = alloca i32, align 4
  %17 = alloca i32, align 4
  %18 = alloca i32, align 4
  %19 = alloca i32, align 4
  %20 = alloca i32, align 4
  store ptr %0, ptr %6, align 8
  store ptr %1, ptr %7, align 8
  store ptr %2, ptr %8, align 8
  store ptr %3, ptr %9, align 8
  call void @llvm.lifetime.start.p0(i64 4, ptr %10) #7
  %21 = load ptr, ptr %8, align 8
  %22 = load i32, ptr %21, align 4
  store i32 %22, ptr %10, align 4
  call void @llvm.lifetime.start.p0(i64 8, ptr %11) #7
  call void @llvm.lifetime.start.p0(i64 8, ptr %12) #7
  call void @llvm.lifetime.start.p0(i64 8, ptr %13) #7
  call void @llvm.lifetime.start.p0(i64 8, ptr %14) #7
  call void @llvm.lifetime.start.p0(i64 8, ptr %15) #7
  call void @llvm.lifetime.start.p0(i64 4, ptr %16) #7
  call void @llvm.lifetime.start.p0(i64 4, ptr %17) #7
  call void @llvm.lifetime.start.p0(i64 4, ptr %18) #7
  call void @llvm.lifetime.start.p0(i64 4, ptr %19) #7
  %23 = load ptr, ptr %6, align 8
  %24 = icmp ne ptr %23, null
  br i1 %24, label %25, label %37

25:                                               ; preds = %4
  %26 = load ptr, ptr %9, align 8
  %27 = getelementptr inbounds nuw %struct._MAD, ptr %26, i32 0, i32 3
  %28 = load i8, ptr %27, align 1
  %29 = zext i8 %28 to i32
  %30 = icmp eq i32 %29, 1
  br i1 %30, label %37, label %31

31:                                               ; preds = %25
  %32 = load ptr, ptr %9, align 8
  %33 = getelementptr inbounds nuw %struct._MAD, ptr %32, i32 0, i32 3
  %34 = load i8, ptr %33, align 1
  %35 = zext i8 %34 to i32
  %36 = icmp eq i32 %35, 18
  br i1 %36, label %37, label %40

37:                                               ; preds = %31, %25, %4
  %38 = load ptr, ptr %8, align 8
  %39 = load i32, ptr %38, align 4
  store i32 %39, ptr %5, align 4
  store i32 1, ptr %20, align 4
  br label %115

40:                                               ; preds = %31
  %41 = load ptr, ptr %9, align 8
  %42 = getelementptr inbounds nuw %struct._MAD, ptr %41, i32 0, i32 1
  %43 = load i8, ptr %42, align 1
  %44 = zext i8 %43 to i32
  %45 = icmp eq i32 %44, 3
  br i1 %45, label %46, label %52

46:                                               ; preds = %40
  store i32 1, ptr %18, align 4
  %47 = load ptr, ptr %7, align 8
  %48 = load i32, ptr %10, align 4
  %49 = sub i32 %48, 4
  %50 = call zeroext i16 @tvb_get_ntohs(ptr noundef %47, i32 noundef %49)
  %51 = zext i16 %50 to i32
  store i32 %51, ptr %19, align 4
  br label %62

52:                                               ; preds = %40
  %53 = load ptr, ptr %9, align 8
  %54 = getelementptr inbounds nuw %struct._MAD, ptr %53, i32 0, i32 10
  %55 = load i32, ptr %54, align 4
  %56 = and i32 %55, -16777216
  %57 = lshr i32 %56, 24
  store i32 %57, ptr %18, align 4
  %58 = load ptr, ptr %9, align 8
  %59 = getelementptr inbounds nuw %struct._MAD, ptr %58, i32 0, i32 10
  %60 = load i32, ptr %59, align 4
  %61 = and i32 %60, 2047
  store i32 %61, ptr %19, align 4
  br label %62

62:                                               ; preds = %52, %46
  %63 = load ptr, ptr %6, align 8
  %64 = load i32, ptr @hf_opa_P_KeyTable, align 4
  %65 = load ptr, ptr %7, align 8
  %66 = load i32, ptr %10, align 4
  %67 = load i32, ptr %18, align 4
  %68 = mul i32 64, %67
  %69 = call ptr @proto_tree_add_item(ptr noundef %63, i32 noundef %64, ptr noundef %65, i32 noundef %66, i32 noundef %68, i32 noundef 0)
  store ptr %69, ptr %11, align 8
  %70 = load ptr, ptr %11, align 8
  %71 = load i32, ptr @ett_pkeytable, align 4
  %72 = call ptr @proto_item_add_subtree(ptr noundef %70, i32 noundef %71)
  store ptr %72, ptr %12, align 8
  %73 = load i32, ptr %19, align 4
  store i32 %73, ptr %17, align 4
  br label %74

74:                                               ; preds = %110, %62
  %75 = load i32, ptr %17, align 4
  %76 = load i32, ptr %19, align 4
  %77 = load i32, ptr %18, align 4
  %78 = add i32 %76, %77
  %79 = icmp ult i32 %75, %78
  br i1 %79, label %80, label %113

80:                                               ; preds = %74
  %81 = load ptr, ptr %12, align 8
  %82 = load ptr, ptr %7, align 8
  %83 = load i32, ptr %10, align 4
  %84 = load i32, ptr @ett_pkeytable_block, align 4
  %85 = load i32, ptr %17, align 4
  %86 = call ptr (ptr, ptr, i32, i32, i32, ptr, ptr, ...) @proto_tree_add_subtree_format(ptr noundef %81, ptr noundef %82, i32 noundef %83, i32 noundef 64, i32 noundef %84, ptr noundef null, ptr noundef @.str.2332, i32 noundef %85)
  store ptr %86, ptr %13, align 8
  store i32 0, ptr %16, align 4
  br label %87

87:                                               ; preds = %106, %80
  %88 = load i32, ptr %16, align 4
  %89 = icmp ult i32 %88, 32
  br i1 %89, label %90, label %109

90:                                               ; preds = %87
  %91 = load ptr, ptr %13, align 8
  %92 = load i32, ptr @hf_opa_P_KeyTable_MembershipType, align 4
  %93 = load ptr, ptr %7, align 8
  %94 = load i32, ptr %10, align 4
  %95 = call ptr @proto_tree_add_item(ptr noundef %91, i32 noundef %92, ptr noundef %93, i32 noundef %94, i32 noundef 2, i32 noundef 0)
  store ptr %95, ptr %15, align 8
  %96 = load ptr, ptr %13, align 8
  %97 = load i32, ptr @hf_opa_P_KeyTable_P_KeyBase, align 4
  %98 = load ptr, ptr %7, align 8
  %99 = load i32, ptr %10, align 4
  %100 = call ptr @proto_tree_add_item(ptr noundef %96, i32 noundef %97, ptr noundef %98, i32 noundef %99, i32 noundef 2, i32 noundef 0)
  store ptr %100, ptr %14, align 8
  %101 = load i32, ptr %10, align 4
  %102 = add i32 %101, 2
  store i32 %102, ptr %10, align 4
  %103 = load ptr, ptr %15, align 8
  %104 = load i32, ptr %16, align 4
  call void (ptr, ptr, ...) @proto_item_prepend_text(ptr noundef %103, ptr noundef @.str.2329, i32 noundef %104)
  %105 = load ptr, ptr %14, align 8
  call void (ptr, ptr, ...) @proto_item_prepend_text(ptr noundef %105, ptr noundef @.str.2331)
  br label %106

106:                                              ; preds = %90
  %107 = load i32, ptr %16, align 4
  %108 = add i32 %107, 1
  store i32 %108, ptr %16, align 4
  br label %87, !llvm.loop !15

109:                                              ; preds = %87
  br label %110

110:                                              ; preds = %109
  %111 = load i32, ptr %17, align 4
  %112 = add i32 %111, 1
  store i32 %112, ptr %17, align 4
  br label %74, !llvm.loop !16

113:                                              ; preds = %74
  %114 = load i32, ptr %10, align 4
  store i32 %114, ptr %5, align 4
  store i32 1, ptr %20, align 4
  br label %115

115:                                              ; preds = %113, %37
  call void @llvm.lifetime.end.p0(i64 4, ptr %19) #7
  call void @llvm.lifetime.end.p0(i64 4, ptr %18) #7
  call void @llvm.lifetime.end.p0(i64 4, ptr %17) #7
  call void @llvm.lifetime.end.p0(i64 4, ptr %16) #7
  call void @llvm.lifetime.end.p0(i64 8, ptr %15) #7
  call void @llvm.lifetime.end.p0(i64 8, ptr %14) #7
  call void @llvm.lifetime.end.p0(i64 8, ptr %13) #7
  call void @llvm.lifetime.end.p0(i64 8, ptr %12) #7
  call void @llvm.lifetime.end.p0(i64 8, ptr %11) #7
  call void @llvm.lifetime.end.p0(i64 4, ptr %10) #7
  %116 = load i32, ptr %5, align 4
  ret i32 %116
}