; Function Attrs: null_pointer_is_valid sspstrong uwtable
define internal fastcc i32 @parse_P_KeyTable(ptr noundef %0, ptr noundef %1, i32 %.0.val, ptr noundef readonly captures(none) %2) unnamed_addr #0 {
  %.not = icmp eq ptr %0, null
  br i1 %.not, label %.loopexit, label %4

4:                                                ; preds = %3
  %5 = getelementptr inbounds nuw i8, ptr %2, i64 3
  %6 = load i8, ptr %5, align 1
  switch i8 %6, label %7 [
    i8 1, label %.loopexit
    i8 18, label %.loopexit
  ]

7:                                                ; preds = %4
  %8 = getelementptr inbounds nuw i8, ptr %2, i64 1
  %9 = load i8, ptr %8, align 1
  %10 = icmp eq i8 %9, 3
  br i1 %10, label %11, label %15

11:                                               ; preds = %7
  %12 = add i32 %.0.val, -4
  %13 = tail call zeroext i16 @tvb_get_ntohs(ptr noundef %1, i32 noundef %12)
  %14 = zext i16 %13 to i32
  br label %20

15:                                               ; preds = %7
  %16 = getelementptr inbounds nuw i8, ptr %2, i64 20
  %17 = load i32, ptr %16, align 4
  %18 = lshr i32 %17, 24
  %19 = and i32 %17, 2047
  br label %20

20:                                               ; preds = %15, %11
  %.037 = phi i32 [ 1, %11 ], [ %18, %15 ]
  %.0 = phi i32 [ %14, %11 ], [ %19, %15 ]
  %21 = load i32, ptr @hf_opa_P_KeyTable, align 4
  %22 = shl nuw nsw i32 %.037, 6
  %23 = tail call ptr @proto_tree_add_item(ptr noundef nonnull %0, i32 noundef %21, ptr noundef %1, i32 noundef %.0.val, i32 noundef %22, i32 noundef 0)
  %24 = load i32, ptr @ett_pkeytable, align 4
  %25 = tail call ptr @proto_item_add_subtree(ptr noundef %23, i32 noundef %24)
  %26 = add nuw nsw i32 %.0, %.037
  %.not5 = icmp eq i32 %.037, 0
  br i1 %.not5, label %.loopexit, label %.lr.ph

.lr.ph:                                           ; preds = %20, %36
  %.0384 = phi i32 [ %37, %36 ], [ %.0, %20 ]
  %.0413 = phi i32 [ %34, %36 ], [ %.0.val, %20 ]
  %27 = load i32, ptr @ett_pkeytable_block, align 4
  %28 = tail call ptr (ptr, ptr, i32, i32, i32, ptr, ptr, ...) @proto_tree_add_subtree_format(ptr noundef %25, ptr noundef %1, i32 noundef %.0413, i32 noundef 64, i32 noundef %27, ptr noundef null, ptr noundef nonnull @.str.2332, i32 noundef %.0384)
  br label %29

29:                                               ; preds = %.lr.ph, %29
  %.0392 = phi i32 [ 0, %.lr.ph ], [ %35, %29 ]
  %.11 = phi i32 [ %.0413, %.lr.ph ], [ %34, %29 ]
  %30 = load i32, ptr @hf_opa_P_KeyTable_MembershipType, align 4
  %31 = tail call ptr @proto_tree_add_item(ptr noundef %28, i32 noundef %30, ptr noundef %1, i32 noundef %.11, i32 noundef 2, i32 noundef 0)
  %32 = load i32, ptr @hf_opa_P_KeyTable_P_KeyBase, align 4
  %33 = tail call ptr @proto_tree_add_item(ptr noundef %28, i32 noundef %32, ptr noundef %1, i32 noundef %.11, i32 noundef 2, i32 noundef 0)
  %34 = add i32 %.11, 2
  tail call void (ptr, ptr, ...) @proto_item_prepend_text(ptr noundef %31, ptr noundef nonnull @.str.2329, i32 noundef %.0392)
  tail call void (ptr, ptr, ...) @proto_item_prepend_text(ptr noundef %33, ptr noundef nonnull @.str.2331)
  %35 = add nuw nsw i32 %.0392, 1
  %exitcond.not = icmp eq i32 %35, 32
  br i1 %exitcond.not, label %36, label %29, !llvm.loop !24

36:                                               ; preds = %29
  %37 = add nuw nsw i32 %.0384, 1
  %38 = icmp samesign ult i32 %37, %26
  br i1 %38, label %.lr.ph, label %.loopexit, !llvm.loop !25

.loopexit:                                        ; preds = %36, %20, %3, %4, %4
  %.040 = phi i32 [ %.0.val, %4 ], [ %.0.val, %4 ], [ %.0.val, %3 ], [ %.0.val, %20 ], [ %34, %36 ]
  ret i32 %.040
}